target datalayout = "e-m:e-p270:32:32-p271:32:32-p272:64:64-i64:64-i128:128-f80:128-n8:16:32:64-S128"
target triple = "x86_64-pc-linux-gnu"

; Function Attrs: mustprogress nounwind uwtable
define linkonce_odr hidden noundef zeroext i8 @_ZNSt14numeric_limitsIhE3maxEv() #5 comdat align 2 {
  ret i8 -1
}

; Function Attrs: mustprogress nounwind uwtable
define linkonce_odr hidden noundef zeroext i8 @_ZNSt14numeric_limitsIhE3minEv() #5 comdat align 2 {
  ret i8 0
}

; Function Attrs: mustprogress uwtable
define hidden void @_ZN2cv4gapi5fluid12cpu_baseline16run_yuv2rgb_implEPhPKhiPKf(ptr noundef %0, ptr noundef %1, i32 noundef %2, ptr noundef %3) #0 {
  %5 = alloca i32, align 4
  %6 = alloca i32, align 4
  %7 = alloca i32, align 4
  %8 = alloca ptr, align 8
  %9 = alloca ptr, align 8
  %10 = alloca i32, align 4
  %11 = alloca ptr, align 8
  %12 = alloca i16, align 2
  %13 = alloca i16, align 2
  %14 = alloca i16, align 2
  %15 = alloca i16, align 2
  %16 = alloca i32, align 4
  %17 = alloca i16, align 2
  %18 = alloca i16, align 2
  %19 = alloca i16, align 2
  %20 = alloca i16, align 2
  %21 = alloca i16, align 2
  %22 = alloca i16, align 2
  store ptr %0, ptr %8, align 8
  store ptr %1, ptr %9, align 8
  store i32 %2, ptr %10, align 4
  store ptr %3, ptr %11, align 8
  %23 = load ptr, ptr %11, align 8
  %24 = getelementptr inbounds float, ptr %23, i64 0
  %25 = load float, ptr %24, align 4
  %26 = call float @llvm.fmuladd.f32(float %25, float 4.096000e+03, float 5.000000e-01)
  %27 = fptosi float %26 to i16
  store i16 %27, ptr %12, align 2
  %28 = load ptr, ptr %11, align 8
  %29 = getelementptr inbounds float, ptr %28, i64 1
  %30 = load float, ptr %29, align 4
  %31 = call float @llvm.fmuladd.f32(float %30, float 4.096000e+03, float 5.000000e-01)
  %32 = fptosi float %31 to i16
  store i16 %32, ptr %13, align 2
  %33 = load ptr, ptr %11, align 8
  %34 = getelementptr inbounds float, ptr %33, i64 2
  %35 = load float, ptr %34, align 4
  %36 = call float @llvm.fmuladd.f32(float %35, float 4.096000e+03, float 5.000000e-01)
  %37 = fptosi float %36 to i16
  store i16 %37, ptr %14, align 2
  %38 = load ptr, ptr %11, align 8
  %39 = getelementptr inbounds float, ptr %38, i64 3
  %40 = load float, ptr %39, align 4
  %41 = call float @llvm.fmuladd.f32(float %40, float 4.096000e+03, float 5.000000e-01)
  %42 = fptosi float %41 to i16
  store i16 %42, ptr %15, align 2
  store i32 0, ptr %16, align 4
  br label %43

43:                                               ; preds = %204, %4
  %44 = load i32, ptr %16, align 4
  %45 = load i32, ptr %10, align 4
  %46 = icmp slt i32 %44, %45
  br i1 %46, label %47, label %207

47:                                               ; preds = %43
  %48 = load ptr, ptr %9, align 8
  %49 = load i32, ptr %16, align 4
  %50 = mul nsw i32 3, %49
  %51 = sext i32 %50 to i64
  %52 = getelementptr inbounds i8, ptr %48, i64 %51
  %53 = load i8, ptr %52, align 1
  %54 = zext i8 %53 to i32
  %55 = shl i32 %54, 3
  %56 = trunc i32 %55 to i16
  store i16 %56, ptr %17, align 2
  %57 = load ptr, ptr %9, align 8
  %58 = load i32, ptr %16, align 4
  %59 = mul nsw i32 3, %58
  %60 = add nsw i32 %59, 1
  %61 = sext i32 %60 to i64
  %62 = getelementptr inbounds i8, ptr %57, i64 %61
  %63 = load i8, ptr %62, align 1
  %64 = zext i8 %63 to i32
  %65 = sub nsw i32 %64, 128
  %66 = shl i32 %65, 7
  %67 = trunc i32 %66 to i16
  store i16 %67, ptr %18, align 2
  %68 = load ptr, ptr %9, align 8
  %69 = load i32, ptr %16, align 4
  %70 = mul nsw i32 3, %69
  %71 = add nsw i32 %70, 2
  %72 = sext i32 %71 to i64
  %73 = getelementptr inbounds i8, ptr %68, i64 %72
  %74 = load i8, ptr %73, align 1
  %75 = zext i8 %74 to i32
  %76 = sub nsw i32 %75, 128
  %77 = shl i32 %76, 7
  %78 = trunc i32 %77 to i16
  store i16 %78, ptr %19, align 2
  %79 = load i16, ptr %17, align 2
  %80 = sext i16 %79 to i32
  %81 = load i16, ptr %12, align 2
  %82 = sext i16 %81 to i32
  %83 = load i16, ptr %19, align 2
  %84 = sext i16 %83 to i32
  %85 = mul nsw i32 %82, %84
  %86 = ashr i32 %85, 16
  %87 = add nsw i32 %80, %86
  %88 = trunc i32 %87 to i16
  store i16 %88, ptr %20, align 2
  %89 = load i16, ptr %17, align 2
  %90 = sext i16 %89 to i32
  %91 = load i16, ptr %13, align 2
  %92 = sext i16 %91 to i32
  %93 = load i16, ptr %18, align 2
  %94 = sext i16 %93 to i32
  %95 = mul nsw i32 %92, %94
  %96 = load i16, ptr %14, align 2
  %97 = sext i16 %96 to i32
  %98 = load i16, ptr %19, align 2
  %99 = sext i16 %98 to i32
  %100 = mul nsw i32 %97, %99
  %101 = add nsw i32 %95, %100
  %102 = ashr i32 %101, 16
  %103 = add nsw i32 %90, %102
  %104 = trunc i32 %103 to i16
  store i16 %104, ptr %21, align 2
  %105 = load i16, ptr %17, align 2
  %106 = sext i16 %105 to i32
  %107 = load i16, ptr %15, align 2
  %108 = sext i16 %107 to i32
  %109 = load i16, ptr %18, align 2
  %110 = sext i16 %109 to i32
  %111 = mul nsw i32 %108, %110
  %112 = ashr i32 %111, 16
  %113 = add nsw i32 %106, %112
  %114 = trunc i32 %113 to i16
  store i16 %114, ptr %22, align 2
  %115 = load i16, ptr %20, align 2
  %116 = sext i16 %115 to i32
  %117 = add nsw i32 %116, 4
  %118 = ashr i32 %117, 3
  store i32 %118, ptr %5, align 4
  %119 = load i32, ptr %5, align 4
  %120 = call noundef zeroext i8 @_ZNSt14numeric_limitsIhE3minEv() #8
  %121 = zext i8 %120 to i32
  %122 = icmp slt i32 %119, %121
  br i1 %122, label %123, label %125

123:                                              ; preds = %47
  %124 = call noundef zeroext i8 @_ZNSt14numeric_limitsIhE3minEv() #8
  br label %137

125:                                              ; preds = %47
  %126 = load i32, ptr %5, align 4
  %127 = call noundef zeroext i8 @_ZNSt14numeric_limitsIhE3maxEv() #8
  %128 = zext i8 %127 to i32
  %129 = icmp sgt i32 %126, %128
  br i1 %129, label %130, label %132

130:                                              ; preds = %125
  %131 = call noundef zeroext i8 @_ZNSt14numeric_limitsIhE3maxEv() #8
  br label %135

132:                                              ; preds = %125
  %133 = load i32, ptr %5, align 4
  %134 = trunc i32 %133 to i8
  br label %135

135:                                              ; preds = %132, %130
  %136 = phi i8 [ %131, %130 ], [ %134, %132 ]
  br label %137

137:                                              ; preds = %135, %123
  %138 = phi i8 [ %124, %123 ], [ %136, %135 ]
  %139 = load ptr, ptr %8, align 8
  %140 = load i32, ptr %16, align 4
  %141 = mul nsw i32 3, %140
  %142 = sext i32 %141 to i64
  %143 = getelementptr inbounds i8, ptr %139, i64 %142
  store i8 %138, ptr %143, align 1
  %144 = load i16, ptr %21, align 2
  %145 = sext i16 %144 to i32
  %146 = add nsw i32 %145, 4
  %147 = ashr i32 %146, 3
  store i32 %147, ptr %6, align 4
  %148 = load i32, ptr %6, align 4
  %149 = call noundef zeroext i8 @_ZNSt14numeric_limitsIhE3minEv() #8
  %150 = zext i8 %149 to i32
  %151 = icmp slt i32 %148, %150
  br i1 %151, label %152, label %154

152:                                              ; preds = %137
  %153 = call noundef zeroext i8 @_ZNSt14numeric_limitsIhE3minEv() #8
  br label %166

154:                                              ; preds = %137
  %155 = load i32, ptr %6, align 4
  %156 = call noundef zeroext i8 @_ZNSt14numeric_limitsIhE3maxEv() #8
  %157 = zext i8 %156 to i32
  %158 = icmp sgt i32 %155, %157
  br i1 %158, label %159, label %161

159:                                              ; preds = %154
  %160 = call noundef zeroext i8 @_ZNSt14numeric_limitsIhE3maxEv() #8
  br label %164

161:                                              ; preds = %154
  %162 = load i32, ptr %6, align 4
  %163 = trunc i32 %162 to i8
  br label %164

164:                                              ; preds = %161, %159
  %165 = phi i8 [ %160, %159 ], [ %163, %161 ]
  br label %166

166:                                              ; preds = %164, %152
  %167 = phi i8 [ %153, %152 ], [ %165, %164 ]
  %168 = load ptr, ptr %8, align 8
  %169 = load i32, ptr %16, align 4
  %170 = mul nsw i32 3, %169
  %171 = add nsw i32 %170, 1
  %172 = sext i32 %171 to i64
  %173 = getelementptr inbounds i8, ptr %168, i64 %172
  store i8 %167, ptr %173, align 1
  %174 = load i16, ptr %22, align 2
  %175 = sext i16 %174 to i32
  %176 = add nsw i32 %175, 4
  %177 = ashr i32 %176, 3
  store i32 %177, ptr %7, align 4
  %178 = load i32, ptr %7, align 4
  %179 = call noundef zeroext i8 @_ZNSt14numeric_limitsIhE3minEv() #8
  %180 = zext i8 %179 to i32
  %181 = icmp slt i32 %178, %180
  br i1 %181, label %182, label %184

182:                                              ; preds = %166
  %183 = call noundef zeroext i8 @_ZNSt14numeric_limitsIhE3minEv() #8
  br label %196

184:                                              ; preds = %166
  %185 = load i32, ptr %7, align 4
  %186 = call noundef zeroext i8 @_ZNSt14numeric_limitsIhE3maxEv() #8
  %187 = zext i8 %186 to i32
  %188 = icmp sgt i32 %185, %187
  br i1 %188, label %189, label %191

189:                                              ; preds = %184
  %190 = call noundef zeroext i8 @_ZNSt14numeric_limitsIhE3maxEv() #8
  br label %194

191:                                              ; preds = %184
  %192 = load i32, ptr %7, align 4
  %193 = trunc i32 %192 to i8
  br label %194

194:                                              ; preds = %191, %189
  %195 = phi i8 [ %190, %189 ], [ %193, %191 ]
  br label %196

196:                                              ; preds = %194, %182
  %197 = phi i8 [ %183, %182 ], [ %195, %194 ]
  %198 = load ptr, ptr %8, align 8
  %199 = load i32, ptr %16, align 4
  %200 = mul nsw i32 3, %199
  %201 = add nsw i32 %200, 2
  %202 = sext i32 %201 to i64
  %203 = getelementptr inbounds i8, ptr %198, i64 %202
  store i8 %197, ptr %203, align 1
  br label %204

204:                                              ; preds = %196
  %205 = load i32, ptr %16, align 4
  %206 = add nsw i32 %205, 1
  store i32 %206, ptr %16, align 4
  br label %43, !llvm.loop !10

207:                                              ; preds = %43
  ret void
}