; Function Attrs: mustprogress nofree norecurse nosync nounwind memory(argmem: readwrite) uwtable
define hidden void @_ZN2cv4gapi5fluid12cpu_baseline16run_yuv2rgb_implEPhPKhiPKf(ptr nocapture noundef writeonly %0, ptr nocapture noundef readonly %1, i32 noundef %2, ptr nocapture noundef readonly %3) local_unnamed_addr #5 {
  %5 = icmp sgt i32 %2, 0
  br i1 %5, label %.lr.ph, label %._crit_edge

.lr.ph:                                           ; preds = %4
  %6 = getelementptr inbounds i8, ptr %3, i64 12
  %7 = load float, ptr %6, align 4
  %8 = tail call float @llvm.fmuladd.f32(float %7, float 4.096000e+03, float 5.000000e-01)
  %9 = fptosi float %8 to i16
  %10 = getelementptr inbounds i8, ptr %3, i64 8
  %11 = load float, ptr %10, align 4
  %12 = tail call float @llvm.fmuladd.f32(float %11, float 4.096000e+03, float 5.000000e-01)
  %13 = fptosi float %12 to i16
  %14 = getelementptr inbounds i8, ptr %3, i64 4
  %15 = load float, ptr %14, align 4
  %16 = tail call float @llvm.fmuladd.f32(float %15, float 4.096000e+03, float 5.000000e-01)
  %17 = fptosi float %16 to i16
  %18 = load float, ptr %3, align 4
  %19 = tail call float @llvm.fmuladd.f32(float %18, float 4.096000e+03, float 5.000000e-01)
  %20 = fptosi float %19 to i16
  %21 = sext i16 %20 to i32
  %22 = sext i16 %17 to i32
  %23 = sext i16 %13 to i32
  %24 = sext i16 %9 to i32
  %wide.trip.count = zext nneg i32 %2 to i64
  br label %25

25:                                               ; preds = %.lr.ph, %25
  %indvars.iv = phi i64 [ 0, %.lr.ph ], [ %indvars.iv.next, %25 ]
  %26 = mul nuw nsw i64 %indvars.iv, 3
  %27 = getelementptr inbounds i8, ptr %1, i64 %26
  %28 = load i8, ptr %27, align 1
  %29 = zext i8 %28 to i32
  %30 = add nuw nsw i64 %26, 1
  %31 = getelementptr inbounds i8, ptr %1, i64 %30
  %32 = load i8, ptr %31, align 1
  %33 = zext i8 %32 to i16
  %34 = shl nuw nsw i16 %33, 7
  %35 = add nsw i16 %34, -16384
  %36 = add nuw nsw i64 %26, 2
  %37 = getelementptr inbounds i8, ptr %1, i64 %36
  %38 = load i8, ptr %37, align 1
  %39 = zext i8 %38 to i16
  %40 = shl nuw nsw i16 %39, 7
  %41 = add nsw i16 %40, -16384
  %42 = sext i16 %41 to i32
  %43 = mul nsw i32 %42, %21
  %44 = sext i16 %35 to i32
  %45 = mul nsw i32 %44, %22
  %46 = mul nsw i32 %42, %23
  %47 = mul nsw i32 %44, %24
  %48 = shl nuw nsw i32 %29, 19
  %49 = add nsw i32 %43, %48
  %50 = ashr i32 %49, 16
  %51 = add nsw i32 %50, 4
  %52 = ashr i32 %51, 3
  %53 = icmp slt i32 %52, 0
  %spec.select46 = tail call i32 @llvm.umin.i32(i32 %52, i32 255)
  %spec.select = trunc nuw i32 %spec.select46 to i8
  %54 = select i1 %53, i8 0, i8 %spec.select
  %55 = getelementptr inbounds i8, ptr %0, i64 %26
  store i8 %54, ptr %55, align 1
  %56 = add nsw i32 %45, %48
  %57 = add nsw i32 %56, %46
  %58 = ashr i32 %57, 16
  %59 = add nsw i32 %58, 4
  %60 = ashr i32 %59, 3
  %61 = icmp slt i32 %60, 0
  %spec.select4447 = tail call i32 @llvm.umin.i32(i32 %60, i32 255)
  %spec.select44 = trunc nuw i32 %spec.select4447 to i8
  %62 = select i1 %61, i8 0, i8 %spec.select44
  %63 = getelementptr inbounds i8, ptr %0, i64 %30
  store i8 %62, ptr %63, align 1
  %sext = add nsw i32 %47, %48
  %64 = ashr i32 %sext, 16
  %65 = add nsw i32 %64, 4
  %66 = ashr i32 %65, 3
  %67 = icmp slt i32 %66, 0
  %spec.select4548 = tail call i32 @llvm.umin.i32(i32 %66, i32 255)
  %spec.select45 = trunc nuw i32 %spec.select4548 to i8
  %68 = select i1 %67, i8 0, i8 %spec.select45
  %69 = getelementptr inbounds i8, ptr %0, i64 %36
  store i8 %68, ptr %69, align 1
  %indvars.iv.next = add nuw nsw i64 %indvars.iv, 1
  %exitcond.not = icmp eq i64 %indvars.iv.next, %wide.trip.count
  br i1 %exitcond.not, label %._crit_edge, label %25, !llvm.loop !12

._crit_edge:                                      ; preds = %25, %4
  ret void
}